; Function Attrs: mustprogress uwtable
define hidden void @_ZN4cvc56parser14Smt2TermParser15parseSymbolListB5cxx11ENS0_16DeclarationCheckENS0_10SymbolTypeE(ptr noalias sret(%"class.std::vector.113") align 8 %agg.result, ptr nocapture noundef nonnull readonly align 8 dereferenceable(24) %this, i32 noundef %check, i32 noundef %type) local_unnamed_addr #5 align 2 personality ptr @__gxx_personality_v0 {
entry:
  %sym = alloca %"class.std::__cxx11::basic_string", align 8
  %d_lex = getelementptr inbounds i8, ptr %this, i64 8
  %0 = load ptr, ptr %d_lex, align 8
  tail call void @_ZN4cvc56parser5Lexer8eatTokenENS0_5TokenE(ptr noundef nonnull align 8 dereferenceable(32892) %0, i32 noundef 63)
  tail call void @llvm.memset.p0.i64(ptr noundef nonnull align 8 dereferenceable(24) %agg.result, i8 0, i64 24, i1 false)
  %1 = load ptr, ptr %d_lex, align 8
  %call = invoke noundef i32 @_ZN4cvc56parser5Lexer9nextTokenEv(ptr noundef nonnull align 8 dereferenceable(32892) %1)
          to label %while.cond.preheader unwind label %lpad.loopexit.split-lp

while.cond.preheader:                             ; preds = %entry
  %cmp.not6 = icmp eq i32 %call, 72
  br i1 %cmp.not6, label %nrvo.skipdtor, label %while.body.lr.ph

while.body.lr.ph:                                 ; preds = %while.cond.preheader
  %_M_finish.i = getelementptr inbounds i8, ptr %agg.result, i64 8
  %_M_end_of_storage.i = getelementptr inbounds i8, ptr %agg.result, i64 16
  br label %while.body

while.body:                                       ; preds = %while.body.lr.ph, %invoke.cont9
  %tok.07 = phi i32 [ %call, %while.body.lr.ph ], [ %call10, %invoke.cont9 ]
  %2 = load ptr, ptr %d_lex, align 8
  invoke void @_ZN4cvc56parser5Lexer13reinsertTokenENS0_5TokenE(ptr noundef nonnull align 8 dereferenceable(32892) %2, i32 noundef %tok.07)
          to label %invoke.cont4 unwind label %lpad.loopexit

invoke.cont4:                                     ; preds = %while.body
  invoke void @_ZN4cvc56parser14Smt2TermParser11parseSymbolB5cxx11ENS0_16DeclarationCheckENS0_10SymbolTypeE(ptr nonnull sret(%"class.std::__cxx11::basic_string") align 8 %sym, ptr noundef nonnull align 8 dereferenceable(24) %this, i32 noundef %check, i32 noundef %type)
          to label %invoke.cont5 unwind label %lpad.loopexit

invoke.cont5:                                     ; preds = %invoke.cont4
  %3 = load ptr, ptr %_M_finish.i, align 8
  %4 = load ptr, ptr %_M_end_of_storage.i, align 8
  %cmp.not.i = icmp eq ptr %3, %4
  br i1 %cmp.not.i, label %if.else.i, label %if.then.i

if.then.i:                                        ; preds = %invoke.cont5
  invoke void @_ZNSt7__cxx1112basic_stringIcSt11char_traitsIcESaIcEEC1ERKS4_(ptr noundef nonnull align 8 dereferenceable(32) %3, ptr noundef nonnull align 8 dereferenceable(32) %sym)
          to label %.noexc unwind label %lpad6

.noexc:                                           ; preds = %if.then.i
  %5 = load ptr, ptr %_M_finish.i, align 8
  %incdec.ptr.i = getelementptr inbounds i8, ptr %5, i64 32
  store ptr %incdec.ptr.i, ptr %_M_finish.i, align 8
  br label %invoke.cont7

if.else.i:                                        ; preds = %invoke.cont5
  invoke void @_ZNSt6vectorINSt7__cxx1112basic_stringIcSt11char_traitsIcESaIcEEESaIS5_EE17_M_realloc_insertIJRKS5_EEEvN9__gnu_cxx17__normal_iteratorIPS5_S7_EEDpOT_(ptr noundef nonnull align 8 dereferenceable(24) %agg.result, ptr %3, ptr noundef nonnull align 8 dereferenceable(32) %sym)
          to label %invoke.cont7 unwind label %lpad6

invoke.cont7:                                     ; preds = %.noexc, %if.else.i
  %6 = load ptr, ptr %d_lex, align 8
  %call10 = invoke noundef i32 @_ZN4cvc56parser5Lexer9nextTokenEv(ptr noundef nonnull align 8 dereferenceable(32892) %6)
          to label %invoke.cont9 unwind label %lpad6

invoke.cont9:                                     ; preds = %invoke.cont7
  call void @_ZNSt7__cxx1112basic_stringIcSt11char_traitsIcESaIcEED1Ev(ptr noundef nonnull align 8 dereferenceable(32) %sym) #19
  %cmp.not = icmp eq i32 %call10, 72
  br i1 %cmp.not, label %nrvo.skipdtor, label %while.body, !llvm.loop !27

lpad.loopexit:                                    ; preds = %while.body, %invoke.cont4
  %lpad.loopexit4 = landingpad { ptr, i32 }
          cleanup
  br label %ehcleanup

lpad.loopexit.split-lp:                           ; preds = %entry
  %lpad.loopexit.split-lp5 = landingpad { ptr, i32 }
          cleanup
  br label %ehcleanup

lpad6:                                            ; preds = %if.else.i, %if.then.i, %invoke.cont7
  %7 = landingpad { ptr, i32 }
          cleanup
  call void @_ZNSt7__cxx1112basic_stringIcSt11char_traitsIcESaIcEED1Ev(ptr noundef nonnull align 8 dereferenceable(32) %sym) #19
  br label %ehcleanup

nrvo.skipdtor:                                    ; preds = %invoke.cont9, %while.cond.preheader
  ret void

ehcleanup:                                        ; preds = %lpad.loopexit, %lpad.loopexit.split-lp, %lpad6
  %.pn = phi { ptr, i32 } [ %7, %lpad6 ], [ %lpad.loopexit4, %lpad.loopexit ], [ %lpad.loopexit.split-lp5, %lpad.loopexit.split-lp ]
  call void @_ZNSt6vectorINSt7__cxx1112basic_stringIcSt11char_traitsIcESaIcEEESaIS5_EED2Ev(ptr noundef nonnull align 8 dereferenceable(24) %agg.result) #19
  resume { ptr, i32 } %.pn
}